target datalayout = "e-m:e-p270:32:32-p271:32:32-p272:64:64-i64:64-i128:128-f80:128-n8:16:32:64-S128"
target triple = "x86_64-pc-linux-gnu"

%struct.quic_conn_id_st = type { i8, [20 x i8] }
%union.bio_addr_st = type { %struct.sockaddr_in6, [84 x i8] }
%struct.sockaddr_in6 = type { i16, i16, i32, %struct.in6_addr, i32 }
%struct.in6_addr = type { %union.anon }
%union.anon = type { [4 x i32] }
%struct.OSSL_TIME = type { i64 }
%struct.quic_channel_st = type { ptr, %struct.anon, %struct.anon.0, ptr, ptr, ptr, ptr, ptr, ptr, ptr, i64, %union.bio_addr_st, ptr, ptr, ptr, %struct.quic_txfc_st, %struct.quic_rxfc_st, [3 x %struct.quic_rxfc_st], %struct.quic_rxfc_st, %struct.quic_rxfc_st, %struct.quic_stream_map_st, %struct.ossl_statm_st, ptr, ptr, ptr, ptr, ptr, ptr, ptr, ptr, [3 x ptr], [3 x ptr], %struct.quic_conn_id_st, %struct.quic_conn_id_st, %struct.quic_conn_id_st, %struct.quic_conn_id_st, %struct.quic_conn_id_st, %struct.quic_conn_id_st, i64, i64, i64, i64, i64, i64, i64, i64, i64, i64, i8, i16, ptr, i64, i64, i64, i64, i64, i64, i64, i64, i64, i64, i64, i64, i64, %struct.quic_terminate_cause_st, %struct.OSSL_TIME, %struct.OSSL_TIME, %struct.OSSL_TIME, %struct.OSSL_TIME, %struct.OSSL_TIME, i64, i64, i64, ptr, ptr, i64, ptr }
%struct.anon = type { ptr, ptr }
%struct.anon.0 = type { ptr, ptr }
%struct.quic_txfc_st = type { ptr, i64, i64, i8 }
%struct.quic_rxfc_st = type { i64, i64, i64, i64, i64, i64, i64, %struct.OSSL_TIME, ptr, ptr, ptr, i8, i8, i8, i8 }
%struct.quic_stream_map_st = type { ptr, %struct.quic_stream_list_node_st, %struct.quic_stream_list_node_st, %struct.quic_stream_list_node_st, i64, i64, i64, i64, i64, ptr, ptr, ptr, ptr, ptr, i32 }
%struct.quic_stream_list_node_st = type { ptr, ptr }
%struct.ossl_statm_st = type { %struct.OSSL_TIME, %struct.OSSL_TIME, %struct.OSSL_TIME, %struct.OSSL_TIME, i8 }
%struct.quic_terminate_cause_st = type { i64, i64, ptr, i64, i8 }
%struct.quic_channel_args_st = type { ptr, ptr, ptr, i32, ptr, i32, ptr }

@.str = private unnamed_addr constant [35 x i8] c"../openssl/ssl/quic/quic_channel.c\00", align 1

; Function Attrs: nounwind uwtable
define ptr @ossl_quic_channel_alloc(ptr noundef %0) #0 {
  %2 = alloca ptr, align 8
  %3 = alloca ptr, align 8
  %4 = alloca ptr, align 8
  %5 = alloca i32, align 4
  store ptr %0, ptr %3, align 8, !tbaa !151
  call void @llvm.lifetime.start.p0(i64 8, ptr %4) #9
  store ptr null, ptr %4, align 8, !tbaa !3
  %6 = call noalias ptr @CRYPTO_zalloc(i64 noundef 1608, ptr noundef @.str, i32 noundef 433)
  store ptr %6, ptr %4, align 8, !tbaa !3
  %7 = icmp eq ptr %6, null
  br i1 %7, label %8, label %9

8:                                                ; preds = %1
  store ptr null, ptr %2, align 8
  store i32 1, ptr %5, align 4
  br label %77

9:                                                ; preds = %1
  %10 = load ptr, ptr %3, align 8, !tbaa !151
  %11 = getelementptr inbounds nuw %struct.quic_channel_args_st, ptr %10, i32 0, i32 0
  %12 = load ptr, ptr %11, align 8, !tbaa !153
  %13 = load ptr, ptr %4, align 8, !tbaa !3
  %14 = getelementptr inbounds nuw %struct.quic_channel_st, ptr %13, i32 0, i32 0
  store ptr %12, ptr %14, align 8, !tbaa !8
  %15 = load ptr, ptr %3, align 8, !tbaa !151
  %16 = getelementptr inbounds nuw %struct.quic_channel_args_st, ptr %15, i32 0, i32 3
  %17 = load i32, ptr %16, align 8, !tbaa !155
  %18 = load ptr, ptr %4, align 8, !tbaa !3
  %19 = getelementptr inbounds nuw %struct.quic_channel_st, ptr %18, i32 0, i32 72
  %20 = zext i32 %17 to i64
  %21 = load i64, ptr %19, align 8
  %22 = and i64 %20, 1
  %23 = shl i64 %22, 25
  %24 = and i64 %21, -33554433
  %25 = or i64 %24, %23
  store i64 %25, ptr %19, align 8
  %26 = load ptr, ptr %3, align 8, !tbaa !151
  %27 = getelementptr inbounds nuw %struct.quic_channel_args_st, ptr %26, i32 0, i32 4
  %28 = load ptr, ptr %27, align 8, !tbaa !156
  %29 = load ptr, ptr %4, align 8, !tbaa !3
  %30 = getelementptr inbounds nuw %struct.quic_channel_st, ptr %29, i32 0, i32 4
  store ptr %28, ptr %30, align 8, !tbaa !123
  %31 = load ptr, ptr %3, align 8, !tbaa !151
  %32 = getelementptr inbounds nuw %struct.quic_channel_args_st, ptr %31, i32 0, i32 1
  %33 = load ptr, ptr %32, align 8, !tbaa !157
  %34 = load ptr, ptr %4, align 8, !tbaa !3
  %35 = getelementptr inbounds nuw %struct.quic_channel_st, ptr %34, i32 0, i32 5
  store ptr %33, ptr %35, align 8, !tbaa !45
  %36 = load ptr, ptr %3, align 8, !tbaa !151
  %37 = getelementptr inbounds nuw %struct.quic_channel_args_st, ptr %36, i32 0, i32 2
  %38 = load ptr, ptr %37, align 8, !tbaa !158
  %39 = load ptr, ptr %4, align 8, !tbaa !3
  %40 = getelementptr inbounds nuw %struct.quic_channel_st, ptr %39, i32 0, i32 6
  store ptr %38, ptr %40, align 8, !tbaa !46
  %41 = load ptr, ptr %3, align 8, !tbaa !151
  %42 = getelementptr inbounds nuw %struct.quic_channel_args_st, ptr %41, i32 0, i32 5
  %43 = load i32, ptr %42, align 8, !tbaa !159
  %44 = load ptr, ptr %4, align 8, !tbaa !3
  %45 = getelementptr inbounds nuw %struct.quic_channel_st, ptr %44, i32 0, i32 72
  %46 = zext i32 %43 to i64
  %47 = load i64, ptr %45, align 8
  %48 = and i64 %46, 1
  %49 = shl i64 %48, 41
  %50 = and i64 %47, -2199023255553
  %51 = or i64 %50, %49
  store i64 %51, ptr %45, align 8
  %52 = load ptr, ptr %4, align 8, !tbaa !3
  %53 = getelementptr inbounds nuw %struct.quic_channel_st, ptr %52, i32 0, i32 72
  %54 = load i64, ptr %53, align 8
  %55 = lshr i64 %54, 41
  %56 = and i64 %55, 1
  %57 = trunc i64 %56 to i32
  %58 = icmp ne i32 %57, 0
  br i1 %58, label %59, label %75

59:                                               ; preds = %9
  %60 = load ptr, ptr %3, align 8, !tbaa !151
  %61 = getelementptr inbounds nuw %struct.quic_channel_args_st, ptr %60, i32 0, i32 6
  %62 = load ptr, ptr %61, align 8, !tbaa !160
  %63 = icmp ne ptr %62, null
  br i1 %63, label %64, label %75

64:                                               ; preds = %59
  %65 = load ptr, ptr %3, align 8, !tbaa !151
  %66 = getelementptr inbounds nuw %struct.quic_channel_args_st, ptr %65, i32 0, i32 6
  %67 = load ptr, ptr %66, align 8, !tbaa !160
  %68 = call noalias ptr @CRYPTO_strdup(ptr noundef %67, ptr noundef @.str, i32 noundef 445)
  %69 = load ptr, ptr %4, align 8, !tbaa !3
  %70 = getelementptr inbounds nuw %struct.quic_channel_st, ptr %69, i32 0, i32 76
  store ptr %68, ptr %70, align 8, !tbaa !161
  %71 = icmp eq ptr %68, null
  br i1 %71, label %72, label %74

72:                                               ; preds = %64
  %73 = load ptr, ptr %4, align 8, !tbaa !3
  call void @CRYPTO_free(ptr noundef %73, ptr noundef @.str, i32 noundef 446)
  store ptr null, ptr %2, align 8
  store i32 1, ptr %5, align 4
  br label %77

74:                                               ; preds = %64
  br label %75

75:                                               ; preds = %74, %59, %9
  %76 = load ptr, ptr %4, align 8, !tbaa !3
  store ptr %76, ptr %2, align 8
  store i32 1, ptr %5, align 4
  br label %77

77:                                               ; preds = %75, %72, %8
  call void @llvm.lifetime.end.p0(i64 8, ptr %4) #9
  %78 = load ptr, ptr %2, align 8
  ret ptr %78
}