; Function Attrs: nounwind uwtable
define ptr @ossl_quic_channel_alloc(ptr noundef readonly captures(none) %0) local_unnamed_addr #0 {
  %2 = tail call noalias ptr @CRYPTO_zalloc(i64 noundef 1608, ptr noundef nonnull @.str, i32 noundef 433) #15
  %3 = icmp eq ptr %2, null
  br i1 %3, label %38, label %4

4:                                                ; preds = %1
  %5 = load ptr, ptr %0, align 8, !tbaa !153
  store ptr %5, ptr %2, align 8, !tbaa !3
  %6 = getelementptr inbounds nuw i8, ptr %0, i64 24
  %7 = load i32, ptr %6, align 8, !tbaa !155
  %8 = getelementptr inbounds nuw i8, ptr %2, i64 1568
  %9 = load i64, ptr %8, align 8
  %10 = shl i32 %7, 25
  %11 = and i32 %10, 33554432
  %12 = zext nneg i32 %11 to i64
  %13 = and i64 %9, -2199056809985
  %14 = or disjoint i64 %13, %12
  %15 = getelementptr inbounds nuw i8, ptr %0, i64 32
  %16 = load ptr, ptr %15, align 8, !tbaa !156
  %17 = getelementptr inbounds nuw i8, ptr %2, i64 48
  store ptr %16, ptr %17, align 8, !tbaa !120
  %18 = getelementptr inbounds nuw i8, ptr %0, i64 8
  %19 = load ptr, ptr %18, align 8, !tbaa !157
  %20 = getelementptr inbounds nuw i8, ptr %2, i64 56
  store ptr %19, ptr %20, align 8, !tbaa !44
  %21 = getelementptr inbounds nuw i8, ptr %0, i64 16
  %22 = load ptr, ptr %21, align 8, !tbaa !158
  %23 = getelementptr inbounds nuw i8, ptr %2, i64 64
  store ptr %22, ptr %23, align 8, !tbaa !45
  %24 = getelementptr inbounds nuw i8, ptr %0, i64 40
  %25 = load i32, ptr %24, align 8, !tbaa !159
  %26 = and i32 %25, 1
  %27 = zext nneg i32 %26 to i64
  %28 = shl nuw nsw i64 %27, 41
  %29 = or disjoint i64 %28, %14
  store i64 %29, ptr %8, align 8
  %.not = icmp eq i32 %26, 0
  br i1 %.not, label %38, label %30

30:                                               ; preds = %4
  %31 = getelementptr inbounds nuw i8, ptr %0, i64 48
  %32 = load ptr, ptr %31, align 8, !tbaa !160
  %.not21 = icmp eq ptr %32, null
  br i1 %.not21, label %38, label %33

33:                                               ; preds = %30
  %34 = tail call noalias ptr @CRYPTO_strdup(ptr noundef nonnull %32, ptr noundef nonnull @.str, i32 noundef 445) #15
  %35 = getelementptr inbounds nuw i8, ptr %2, i64 1600
  store ptr %34, ptr %35, align 8, !tbaa !161
  %36 = icmp eq ptr %34, null
  br i1 %36, label %37, label %38

37:                                               ; preds = %33
  tail call void @CRYPTO_free(ptr noundef nonnull %2, ptr noundef nonnull @.str, i32 noundef 446) #15
  br label %38

38:                                               ; preds = %4, %30, %33, %1, %37
  %.0 = phi ptr [ null, %37 ], [ null, %1 ], [ %2, %33 ], [ %2, %30 ], [ %2, %4 ]
  ret ptr %.0
}